Certificate:
    Data:
        Version: 3 (0x2)
        Serial Number: 6 (0x6)
        Signature Algorithm: sha256WithRSAEncryption
        Issuer: CN=swtpm-localca
        Validity
            Not Before: Jul 16 12:41:33 2025 GMT
            Not After : Dec 31 23:59:59 9999 GMT
        Subject: CN=unknown
        Subject Public Key Info:
            Public Key Algorithm: rsaEncryption
                Public-Key: (2048 bit)
                Modulus:
                    00:88:e9:9f:4d:46:a1:7c:ef:3c:3b:ad:3e:8f:c8:
                    df:e1:5b:7f:0a:d8:b0:3e:5d:9d:d9:73:61:47:3e:
                    b8:34:a5:fa:93:14:35:5b:ce:fa:a7:49:50:96:54:
                    b9:92:74:e0:65:db:66:a8:6d:2c:fc:58:fb:85:0d:
                    d9:40:8a:e7:26:54:43:85:df:e8:8f:fd:b8:63:b1:
                    b9:c4:41:d2:e8:12:ff:50:f3:bc:39:0f:d4:87:1d:
                    76:e8:da:2c:8a:80:1a:ad:bb:70:77:23:98:a8:7d:
                    15:04:bd:b6:db:14:2e:d3:30:70:27:9a:96:d7:6d:
                    34:ee:0e:60:82:cf:f6:73:32:0c:98:b5:89:e9:5e:
                    d9:b9:6f:de:59:1a:40:ef:1c:9a:35:af:c9:78:be:
                    d2:48:fd:02:f2:80:e4:9c:b3:9c:71:f4:79:76:35:
                    f0:06:e9:95:8a:6a:ca:47:aa:a8:5e:da:35:b2:53:
                    01:7f:ad:4e:cc:fe:aa:50:e7:a4:36:b4:48:c7:30:
                    2f:c5:f7:f3:23:20:c6:1e:c8:ec:f4:8b:d1:85:ba:
                    28:2c:94:6e:b3:51:05:22:cc:bb:4a:d4:32:b4:25:
                    9c:60:dc:e1:6e:9a:fb:a5:a2:f9:af:ad:aa:77:c7:
                    f2:51:07:02:07:45:d1:d2:8d:a7:5b:f5:04:fa:c1:
                    19:17
                Exponent: 65537 (0x10001)
        X509v3 extensions:
            X509v3 Extended Key Usage: 
                Endorsement Key Certificate
            X509v3 Subject Alternative Name: critical
                DirName:/tcg-at-tpmManufacturer=id:00001014/tcg-at-tpmModel=swtpm/tcg-at-tpmVersion=id:20191023
            X509v3 Basic Constraints: critical
                CA:FALSE
            X509v3 Subject Directory Attributes: 
                TPM Specification:
    0:d=0  hl=2 l=  12 cons: SEQUENCE          
    2:d=1  hl=2 l=   3 prim:  UTF8STRING        :2.0
    7:d=1  hl=2 l=   1 prim:  INTEGER           :00
   10:d=1  hl=2 l=   2 prim:  INTEGER           :A4


            X509v3 Authority Key Identifier: 
                2F:6D:51:DB:77:36:EC:B9:2D:CD:E2:27:80:31:C8:B1:EC:C3:87:B4
            X509v3 Key Usage: critical
                Key Encipherment
    Signature Algorithm: sha256WithRSAEncryption
    Signature Value:
        60:56:2f:4e:94:95:28:26:6b:4a:65:09:68:cf:6d:32:51:56:
        aa:ef:99:0b:83:7d:bd:a0:8b:27:68:a1:58:34:bc:41:35:ed:
        0b:0d:c9:77:b7:c1:f9:8e:2d:9d:a0:86:95:e1:d2:80:fe:4b:
        cc:75:51:c4:ff:1c:f4:45:3f:0f:9c:e2:d0:a9:10:0e:04:fd:
        63:2c:8d:5e:05:07:e7:76:5f:a9:89:7a:df:98:12:b6:72:af:
        d8:32:4e:29:c8:e7:01:37:90:ff:0a:9f:68:ef:f8:36:0f:82:
        74:05:a5:7f:11:ed:69:72:f7:ea:06:f2:5e:23:c2:f7:e5:76:
        e1:d5:d8:ed:5c:24:0c:f0:56:d0:63:11:c0:fc:e1:4d:d2:5e:
        52:f5:ea:f7:24:4c:b3:cb:2e:9f:04:73:95:91:bc:0e:b9:b2:
        7f:a4:35:bd:35:ea:5b:d4:2d:0d:f3:10:ed:40:f9:eb:55:5c:
        01:a4:f0:47:1b:5a:e9:7a:b0:97:2c:be:ed:0d:46:6f:0b:6e:
        cd:4f:96:1a:89:68:9f:6a:85:d1:3b:8a:3d:e6:fe:1b:71:53:
        f4:31:57:c5:e9:c0:0d:e4:0a:80:8a:d4:dc:c4:04:fb:52:0b:
        9c:5c:30:52:3f:63:5d:a9:25:ea:f6:3f:b5:a9:e7:84:3c:ad:
        91:ed:e4:67:11:81:e5:12:a8:1e:71:8a:49:75:23:86:7d:51:
        a3:83:52:6c:f3:08:c4:a8:3b:36:da:4b:3d:74:08:bb:67:a6:
        58:82:cd:3a:61:21:6a:26:b2:91:ec:00:34:d9:aa:8f:bf:42:
        a8:f4:27:7c:85:ac:34:6e:dc:52:c8:12:29:06:47:cf:b6:23:
        c9:09:33:4e:85:c3:61:d8:7f:68:39:05:8b:20:a6:02:a5:a9:
        11:74:70:82:50:83:37:63:7a:f3:e9:c8:cf:4f:ca:c7:29:3c:
        f7:dd:ea:89:08:64:05:3a:d8:21:cb:b8:f6:b6:5a:2d:f4:02:
        81:db:9c:9b:44:25
-----BEGIN CERTIFICATE-----
MIID9DCCAlygAwIBAgIBBjANBgkqhkiG9w0BAQsFADAYMRYwFAYDVQQDEw1zd3Rw
bS1sb2NhbGNhMCAXDTI1MDcxNjEyNDEzM1oYDzk5OTkxMjMxMjM1OTU5WjASMRAw
DgYDVQQDEwd1bmtub3duMIIBIjANBgkqhkiG9w0BAQEFAAOCAQ8AMIIBCgKCAQEA
iOmfTUahfO88O60+j8jf4Vt/CtiwPl2d2XNhRz64NKX6kxQ1W876p0lQllS5knTg
ZdtmqG0s/Fj7hQ3ZQIrnJlRDhd/oj/24Y7G5xEHS6BL/UPO8OQ/Uhx126NosioAa
rbtwdyOYqH0VBL222xQu0zBwJ5qW12007g5ggs/2czIMmLWJ6V7ZuW/eWRpA7xya
Na/JeL7SSP0C8oDknLOccfR5djXwBumVimrKR6qoXto1slMBf61OzP6qUOekNrRI
xzAvxffzIyDGHsjs9IvRhbooLJRus1EFIsy7StQytCWcYNzhbpr7paL5r62qd8fy
UQcCB0XR0o2nW/UE+sEZFwIDAQABo4HMMIHJMBAGA1UdJQQJMAcGBWeBBQgBMFIG
A1UdEQEB/wRIMEakRDBCMRYwFAYFZ4EFAgEMC2lkOjAwMDAxMDE0MRAwDgYFZ4EF
AgIMBXN3dHBtMRYwFAYFZ4EFAgMMC2lkOjIwMTkxMDIzMAwGA1UdEwEB/wQCMAAw
IgYDVR0JBBswGTAXBgVngQUCEDEOMAwMAzIuMAIBAAICAKQwHwYDVR0jBBgwFoAU
L21R23c27LktzeIngDHIsezDh7QwDgYDVR0PAQH/BAQDAgUgMA0GCSqGSIb3DQEB
CwUAA4IBgQBgVi9OlJUoJmtKZQloz20yUVaq75kLg329oIsnaKFYNLxBNe0LDcl3
t8H5ji2doIaV4dKA/kvMdVHE/xz0RT8PnOLQqRAOBP1jLI1eBQfndl+piXrfmBK2
cq/YMk4pyOcBN5D/Cp9o7/g2D4J0BaV/Ee1pcvfqBvJeI8L35Xbh1djtXCQM8FbQ
YxHA/OFN0l5S9er3JEyzyy6fBHOVkbwOubJ/pDW9Nepb1C0N8xDtQPnrVVwBpPBH
G1rperCXLL7tDUZvC27NT5YaiWifaoXRO4o95v4bcVP0MVfF6cAN5AqAitTcxAT7
UgucXDBSP2NdqSXq9j+1qeeEPK2R7eRnEYHlEqgecYpJdSOGfVGjg1Js8wjEqDs2
2ks9dAi7Z6ZYgs06YSFqJrKR7AA02aqPv0Ko9Cd8haw0btxSyBIpBkfPtiPJCTNO
hcNh2H9oOQWLIKYCpakRdHCCUIM3Y3rz6cjPT8rHKTz33eqJCGQFOtghy7j2tlot
9AKB25ybRCU=
-----END CERTIFICATE-----
